; Function Attrs: mustprogress uwtable
define hidden void @_ZN19OpenColorIO_v2_5dev15Lin2LogRenderer10updateDataERSt10shared_ptrIKNS_9LogOpDataEE(ptr noundef nonnull align 8 dereferenceable(136) initializes((8, 12)) %0, ptr noundef nonnull readonly align 8 captures(none) dereferenceable(16) %1) unnamed_addr #3 align 2 {
  %3 = load ptr, ptr %1, align 8, !tbaa !3
  %4 = tail call noundef double @_ZNK19OpenColorIO_v2_5dev9LogOpData7getBaseEv(ptr noundef nonnull align 8 dereferenceable(252) %3) #26
  %5 = fptrunc double %4 to float
  %6 = getelementptr inbounds nuw i8, ptr %0, i64 8
  store float %5, ptr %6, align 8, !tbaa !96
  %7 = load ptr, ptr %1, align 8, !tbaa !3
  %8 = getelementptr inbounds nuw i8, ptr %7, i64 168
  %9 = getelementptr inbounds nuw i8, ptr %0, i64 16
  %10 = tail call noundef nonnull align 8 dereferenceable(24) ptr @_ZNSt6vectorIdSaIdEEaSERKS1_(ptr noundef nonnull align 8 dereferenceable(24) %9, ptr noundef nonnull align 8 dereferenceable(24) %8)
  %11 = load ptr, ptr %1, align 8, !tbaa !3
  %12 = getelementptr inbounds nuw i8, ptr %11, i64 192
  %13 = getelementptr inbounds nuw i8, ptr %0, i64 40
  %14 = tail call noundef nonnull align 8 dereferenceable(24) ptr @_ZNSt6vectorIdSaIdEEaSERKS1_(ptr noundef nonnull align 8 dereferenceable(24) %13, ptr noundef nonnull align 8 dereferenceable(24) %12)
  %15 = load ptr, ptr %1, align 8, !tbaa !3
  %16 = getelementptr inbounds nuw i8, ptr %15, i64 216
  %17 = getelementptr inbounds nuw i8, ptr %0, i64 64
  %18 = tail call noundef nonnull align 8 dereferenceable(24) ptr @_ZNSt6vectorIdSaIdEEaSERKS1_(ptr noundef nonnull align 8 dereferenceable(24) %17, ptr noundef nonnull align 8 dereferenceable(24) %16)
  %19 = load ptr, ptr %9, align 8, !tbaa !108
  %20 = getelementptr inbounds nuw i8, ptr %19, i64 16
  %21 = load double, ptr %20, align 8, !tbaa !119
  %22 = fptrunc double %21 to float
  %23 = getelementptr inbounds nuw i8, ptr %0, i64 88
  store float %22, ptr %23, align 8, !tbaa !111
  %24 = load ptr, ptr %13, align 8, !tbaa !108
  %25 = getelementptr inbounds nuw i8, ptr %24, i64 16
  %26 = load double, ptr %25, align 8, !tbaa !119
  %27 = fptrunc double %26 to float
  %28 = getelementptr inbounds nuw i8, ptr %0, i64 92
  store float %27, ptr %28, align 4, !tbaa !111
  %29 = load ptr, ptr %17, align 8, !tbaa !108
  %30 = getelementptr inbounds nuw i8, ptr %29, i64 16
  %31 = load double, ptr %30, align 8, !tbaa !119
  %32 = fptrunc double %31 to float
  %33 = getelementptr inbounds nuw i8, ptr %0, i64 96
  store float %32, ptr %33, align 8, !tbaa !111
  %34 = getelementptr inbounds nuw i8, ptr %19, i64 24
  %35 = load double, ptr %34, align 8, !tbaa !119
  %36 = fptrunc double %35 to float
  %37 = getelementptr inbounds nuw i8, ptr %0, i64 100
  store float %36, ptr %37, align 4, !tbaa !111
  %38 = getelementptr inbounds nuw i8, ptr %24, i64 24
  %39 = load double, ptr %38, align 8, !tbaa !119
  %40 = fptrunc double %39 to float
  %41 = getelementptr inbounds nuw i8, ptr %0, i64 104
  store float %40, ptr %41, align 8, !tbaa !111
  %42 = getelementptr inbounds nuw i8, ptr %29, i64 24
  %43 = load double, ptr %42, align 8, !tbaa !119
  %44 = fptrunc double %43 to float
  %45 = getelementptr inbounds nuw i8, ptr %0, i64 108
  store float %44, ptr %45, align 4, !tbaa !111
  %46 = load double, ptr %19, align 8, !tbaa !119
  %47 = load float, ptr %6, align 8, !tbaa !96
  %48 = tail call noundef float @log2f(float noundef %47) #26, !tbaa !112
  %49 = fpext float %48 to double
  %50 = fdiv double %46, %49
  %51 = fptrunc double %50 to float
  %52 = getelementptr inbounds nuw i8, ptr %0, i64 112
  store float %51, ptr %52, align 8, !tbaa !111
  %53 = load double, ptr %24, align 8, !tbaa !119
  %54 = tail call noundef float @log2f(float noundef %47) #26, !tbaa !112
  %55 = fpext float %54 to double
  %56 = fdiv double %53, %55
  %57 = fptrunc double %56 to float
  %58 = getelementptr inbounds nuw i8, ptr %0, i64 116
  store float %57, ptr %58, align 4, !tbaa !111
  %59 = load double, ptr %29, align 8, !tbaa !119
  %60 = tail call noundef float @log2f(float noundef %47) #26, !tbaa !112
  %61 = fpext float %60 to double
  %62 = fdiv double %59, %61
  %63 = fptrunc double %62 to float
  %64 = getelementptr inbounds nuw i8, ptr %0, i64 120
  store float %63, ptr %64, align 8, !tbaa !111
  %65 = getelementptr inbounds nuw i8, ptr %19, i64 8
  %66 = load double, ptr %65, align 8, !tbaa !119
  %67 = fptrunc double %66 to float
  %68 = getelementptr inbounds nuw i8, ptr %0, i64 124
  store float %67, ptr %68, align 4, !tbaa !111
  %69 = getelementptr inbounds nuw i8, ptr %24, i64 8
  %70 = load double, ptr %69, align 8, !tbaa !119
  %71 = fptrunc double %70 to float
  %72 = getelementptr inbounds nuw i8, ptr %0, i64 128
  store float %71, ptr %72, align 8, !tbaa !111
  %73 = getelementptr inbounds nuw i8, ptr %29, i64 8
  %74 = load double, ptr %73, align 8, !tbaa !119
  %75 = fptrunc double %74 to float
  %76 = getelementptr inbounds nuw i8, ptr %0, i64 132
  store float %75, ptr %76, align 4, !tbaa !111
  ret void
}